target datalayout = "e-m:e-p270:32:32-p271:32:32-p272:64:64-i64:64-i128:128-f80:128-n8:16:32:64-S128"
target triple = "x86_64-unknown-linux-gnu"

%"class.google::protobuf::compiler::csharp::MessageGenerator" = type <{ %"class.google::protobuf::compiler::csharp::SourceGeneratorBase", ptr, %"class.std::vector", i32, i32, i8, [7 x i8] }>
%"class.google::protobuf::compiler::csharp::SourceGeneratorBase" = type { ptr, ptr }
%"class.std::vector" = type { %"struct.std::_Vector_base" }
%"struct.std::_Vector_base" = type { %"struct.std::_Vector_base<const google::protobuf::FieldDescriptor *, std::allocator<const google::protobuf::FieldDescriptor *>>::_Vector_impl" }
%"struct.std::_Vector_base<const google::protobuf::FieldDescriptor *, std::allocator<const google::protobuf::FieldDescriptor *>>::_Vector_impl" = type { %"struct.std::_Vector_base<const google::protobuf::FieldDescriptor *, std::allocator<const google::protobuf::FieldDescriptor *>>::_Vector_impl_data" }
%"struct.std::_Vector_base<const google::protobuf::FieldDescriptor *, std::allocator<const google::protobuf::FieldDescriptor *>>::_Vector_impl_data" = type { ptr, ptr, ptr }

; Function Attrs: mustprogress nounwind uwtable
define linkonce_odr hidden noundef nonnull align 8 dereferenceable(8) ptr @_ZNKSt6vectorIPKN6google8protobuf15FieldDescriptorESaIS4_EEixEm(ptr noundef nonnull align 8 dereferenceable(24) %this, i64 noundef %__n) #5 comdat align 2 {
entry:
  %this.addr = alloca ptr, align 8
  %__n.addr = alloca i64, align 8
  store ptr %this, ptr %this.addr, align 8
  store i64 %__n, ptr %__n.addr, align 8
  %this1 = load ptr, ptr %this.addr, align 8
  %_M_impl = getelementptr inbounds %"struct.std::_Vector_base", ptr %this1, i32 0, i32 0
  %_M_start = getelementptr inbounds %"struct.std::_Vector_base<const google::protobuf::FieldDescriptor *, std::allocator<const google::protobuf::FieldDescriptor *>>::_Vector_impl_data", ptr %_M_impl, i32 0, i32 0
  %0 = load ptr, ptr %_M_start, align 8
  %1 = load i64, ptr %__n.addr, align 8
  %add.ptr = getelementptr inbounds ptr, ptr %0, i64 %1
  ret ptr %add.ptr
}

; Function Attrs: mustprogress nounwind uwtable
define linkonce_odr hidden noundef i64 @_ZNKSt6vectorIPKN6google8protobuf15FieldDescriptorESaIS4_EE4sizeEv(ptr noundef nonnull align 8 dereferenceable(24) %this) #5 comdat align 2 {
entry:
  %this.addr = alloca ptr, align 8
  store ptr %this, ptr %this.addr, align 8
  %this1 = load ptr, ptr %this.addr, align 8
  %_M_impl = getelementptr inbounds %"struct.std::_Vector_base", ptr %this1, i32 0, i32 0
  %_M_finish = getelementptr inbounds %"struct.std::_Vector_base<const google::protobuf::FieldDescriptor *, std::allocator<const google::protobuf::FieldDescriptor *>>::_Vector_impl_data", ptr %_M_impl, i32 0, i32 1
  %0 = load ptr, ptr %_M_finish, align 8
  %_M_impl2 = getelementptr inbounds %"struct.std::_Vector_base", ptr %this1, i32 0, i32 0
  %_M_start = getelementptr inbounds %"struct.std::_Vector_base<const google::protobuf::FieldDescriptor *, std::allocator<const google::protobuf::FieldDescriptor *>>::_Vector_impl_data", ptr %_M_impl2, i32 0, i32 0
  %1 = load ptr, ptr %_M_start, align 8
  %sub.ptr.lhs.cast = ptrtoint ptr %0 to i64
  %sub.ptr.rhs.cast = ptrtoint ptr %1 to i64
  %sub.ptr.sub = sub i64 %sub.ptr.lhs.cast, %sub.ptr.rhs.cast
  %sub.ptr.div = sdiv exact i64 %sub.ptr.sub, 8
  ret i64 %sub.ptr.div
}

; Function Attrs: mustprogress nounwind uwtable
define hidden noundef nonnull align 8 dereferenceable(24) ptr @_ZN6google8protobuf8compiler6csharp16MessageGenerator16fields_by_numberEv(ptr noundef nonnull align 8 dereferenceable(57) %this) #5 align 2 {
entry:
  %this.addr = alloca ptr, align 8
  store ptr %this, ptr %this.addr, align 8
  %this1 = load ptr, ptr %this.addr, align 8
  %fields_by_number_ = getelementptr inbounds %"class.google::protobuf::compiler::csharp::MessageGenerator", ptr %this1, i32 0, i32 2
  ret ptr %fields_by_number_
}

; Function Attrs: mustprogress uwtable
define hidden noundef i32 @_ZN6google8protobuf8compiler6csharp16MessageGenerator16GetPresenceIndexEPKNS0_15FieldDescriptorE(ptr noundef nonnull align 8 dereferenceable(57) %this, ptr noundef %descriptor) #4 align 2 {
entry:
  %retval = alloca i32, align 4
  %this.addr = alloca ptr, align 8
  %descriptor.addr = alloca ptr, align 8
  %index = alloca i32, align 4
  %i = alloca i32, align 4
  %field = alloca ptr, align 8
  store ptr %this, ptr %this.addr, align 8
  store ptr %descriptor, ptr %descriptor.addr, align 8
  %this1 = load ptr, ptr %this.addr, align 8
  %0 = load ptr, ptr %descriptor.addr, align 8
  %call = call noundef zeroext i1 @_ZN6google8protobuf8compiler6csharp19RequiresPresenceBitEPKNS0_15FieldDescriptorE(ptr noundef %0)
  br i1 %call, label %if.end, label %if.then

if.then:                                          ; preds = %entry
  store i32 -1, ptr %retval, align 4
  br label %return

if.end:                                           ; preds = %entry
  store i32 0, ptr %index, align 4
  store i32 0, ptr %i, align 4
  br label %for.cond

for.cond:                                         ; preds = %for.inc, %if.end
  %1 = load i32, ptr %i, align 4
  %conv = sext i32 %1 to i64
  %call2 = call noundef nonnull align 8 dereferenceable(24) ptr @_ZN6google8protobuf8compiler6csharp16MessageGenerator16fields_by_numberEv(ptr noundef nonnull align 8 dereferenceable(57) %this1)
  %call3 = call noundef i64 @_ZNKSt6vectorIPKN6google8protobuf15FieldDescriptorESaIS4_EE4sizeEv(ptr noundef nonnull align 8 dereferenceable(24) %call2) #3
  %cmp = icmp ult i64 %conv, %call3
  br i1 %cmp, label %for.body, label %for.end

for.body:                                         ; preds = %for.cond
  %call4 = call noundef nonnull align 8 dereferenceable(24) ptr @_ZN6google8protobuf8compiler6csharp16MessageGenerator16fields_by_numberEv(ptr noundef nonnull align 8 dereferenceable(57) %this1)
  %2 = load i32, ptr %i, align 4
  %conv5 = sext i32 %2 to i64
  %call6 = call noundef nonnull align 8 dereferenceable(8) ptr @_ZNKSt6vectorIPKN6google8protobuf15FieldDescriptorESaIS4_EEixEm(ptr noundef nonnull align 8 dereferenceable(24) %call4, i64 noundef %conv5) #3
  %3 = load ptr, ptr %call6, align 8
  store ptr %3, ptr %field, align 8
  %4 = load ptr, ptr %field, align 8
  %5 = load ptr, ptr %descriptor.addr, align 8
  %cmp7 = icmp eq ptr %4, %5
  br i1 %cmp7, label %if.then8, label %if.end9

if.then8:                                         ; preds = %for.body
  %6 = load i32, ptr %index, align 4
  store i32 %6, ptr %retval, align 4
  br label %return

if.end9:                                          ; preds = %for.body
  %7 = load ptr, ptr %field, align 8
  %call10 = call noundef zeroext i1 @_ZN6google8protobuf8compiler6csharp19RequiresPresenceBitEPKNS0_15FieldDescriptorE(ptr noundef %7)
  br i1 %call10, label %if.then11, label %if.end12

if.then11:                                        ; preds = %if.end9
  %8 = load i32, ptr %index, align 4
  %inc = add nsw i32 %8, 1
  store i32 %inc, ptr %index, align 4
  br label %if.end12

if.end12:                                         ; preds = %if.then11, %if.end9
  br label %for.inc

for.inc:                                          ; preds = %if.end12
  %9 = load i32, ptr %i, align 4
  %inc13 = add nsw i32 %9, 1
  store i32 %inc13, ptr %i, align 4
  br label %for.cond, !llvm.loop !50

for.end:                                          ; preds = %for.cond
  store i32 -1, ptr %retval, align 4
  br label %return

return:                                           ; preds = %for.end, %if.then8, %if.then
  %10 = load i32, ptr %retval, align 4
  ret i32 %10
}

; Function Attrs: mustprogress uwtable
define hidden noundef ptr @_ZN6google8protobuf8compiler6csharp16MessageGenerator28CreateFieldGeneratorInternalEPKNS0_15FieldDescriptorE(ptr noundef nonnull align 8 dereferenceable(57) %this, ptr noundef %descriptor) #4 align 2 {
entry:
  %this.addr = alloca ptr, align 8
  %descriptor.addr = alloca ptr, align 8
  store ptr %this, ptr %this.addr, align 8
  store ptr %descriptor, ptr %descriptor.addr, align 8
  %this1 = load ptr, ptr %this.addr, align 8
  %0 = load ptr, ptr %descriptor.addr, align 8
  %1 = load ptr, ptr %descriptor.addr, align 8
  %call = call noundef i32 @_ZN6google8protobuf8compiler6csharp16MessageGenerator16GetPresenceIndexEPKNS0_15FieldDescriptorE(ptr noundef nonnull align 8 dereferenceable(57) %this1, ptr noundef %1)
  %call2 = call noundef ptr @_ZN6google8protobuf8compiler6csharp19SourceGeneratorBase7optionsEv(ptr noundef nonnull align 8 dereferenceable(16) %this1)
  %call3 = call noundef ptr @_ZN6google8protobuf8compiler6csharp20CreateFieldGeneratorEPKNS0_15FieldDescriptorEiPKNS2_7OptionsE(ptr noundef %0, i32 noundef %call, ptr noundef %call2)
  ret ptr %call3
}