; Function Attrs: mustprogress uwtable
define hidden noundef ptr @_ZN6google8protobuf8compiler6csharp16MessageGenerator28CreateFieldGeneratorInternalEPKNS0_15FieldDescriptorE(ptr noundef nonnull align 8 dereferenceable(57) %this, ptr noundef %descriptor) local_unnamed_addr #4 align 2 {
entry:
  %call.i = tail call noundef zeroext i1 @_ZN6google8protobuf8compiler6csharp19RequiresPresenceBitEPKNS0_15FieldDescriptorE(ptr noundef %descriptor)
  br i1 %call.i, label %for.cond.preheader.i, label %_ZN6google8protobuf8compiler6csharp16MessageGenerator16GetPresenceIndexEPKNS0_15FieldDescriptorE.exit

for.cond.preheader.i:                             ; preds = %entry
  %fields_by_number_.i.i = getelementptr inbounds i8, ptr %this, i64 24
  %_M_finish.i.i = getelementptr inbounds i8, ptr %this, i64 32
  %0 = load ptr, ptr %_M_finish.i.i, align 8
  %1 = load ptr, ptr %fields_by_number_.i.i, align 8
  %cmp11.not.i = icmp eq ptr %0, %1
  br i1 %cmp11.not.i, label %_ZN6google8protobuf8compiler6csharp16MessageGenerator16GetPresenceIndexEPKNS0_15FieldDescriptorE.exit, label %for.body.i

for.body.i:                                       ; preds = %for.cond.preheader.i, %if.end9.i
  %indvars.iv.i = phi i64 [ %indvars.iv.next.i, %if.end9.i ], [ 0, %for.cond.preheader.i ]
  %2 = phi ptr [ %5, %if.end9.i ], [ %1, %for.cond.preheader.i ]
  %index.012.i = phi i32 [ %spec.select.i, %if.end9.i ], [ 0, %for.cond.preheader.i ]
  %add.ptr.i.i = getelementptr inbounds ptr, ptr %2, i64 %indvars.iv.i
  %3 = load ptr, ptr %add.ptr.i.i, align 8
  %cmp7.i = icmp eq ptr %3, %descriptor
  br i1 %cmp7.i, label %_ZN6google8protobuf8compiler6csharp16MessageGenerator16GetPresenceIndexEPKNS0_15FieldDescriptorE.exit, label %if.end9.i

if.end9.i:                                        ; preds = %for.body.i
  %call10.i = tail call noundef zeroext i1 @_ZN6google8protobuf8compiler6csharp19RequiresPresenceBitEPKNS0_15FieldDescriptorE(ptr noundef %3)
  %inc.i = zext i1 %call10.i to i32
  %spec.select.i = add nuw nsw i32 %index.012.i, %inc.i
  %indvars.iv.next.i = add nuw nsw i64 %indvars.iv.i, 1
  %4 = load ptr, ptr %_M_finish.i.i, align 8
  %5 = load ptr, ptr %fields_by_number_.i.i, align 8
  %sub.ptr.lhs.cast.i.i = ptrtoint ptr %4 to i64
  %sub.ptr.rhs.cast.i.i = ptrtoint ptr %5 to i64
  %sub.ptr.sub.i.i = sub i64 %sub.ptr.lhs.cast.i.i, %sub.ptr.rhs.cast.i.i
  %sub.ptr.div.i.i = ashr exact i64 %sub.ptr.sub.i.i, 3
  %cmp.i = icmp ugt i64 %sub.ptr.div.i.i, %indvars.iv.next.i
  br i1 %cmp.i, label %for.body.i, label %_ZN6google8protobuf8compiler6csharp16MessageGenerator16GetPresenceIndexEPKNS0_15FieldDescriptorE.exit, !llvm.loop !32

_ZN6google8protobuf8compiler6csharp16MessageGenerator16GetPresenceIndexEPKNS0_15FieldDescriptorE.exit: ; preds = %for.body.i, %if.end9.i, %entry, %for.cond.preheader.i
  %retval.0.i = phi i32 [ -1, %entry ], [ -1, %for.cond.preheader.i ], [ -1, %if.end9.i ], [ %index.012.i, %for.body.i ]
  %call2 = tail call noundef ptr @_ZN6google8protobuf8compiler6csharp19SourceGeneratorBase7optionsEv(ptr noundef nonnull align 8 dereferenceable(16) %this)
  %call3 = tail call noundef ptr @_ZN6google8protobuf8compiler6csharp20CreateFieldGeneratorEPKNS0_15FieldDescriptorEiPKNS2_7OptionsE(ptr noundef %descriptor, i32 noundef %retval.0.i, ptr noundef %call2)
  ret ptr %call3
}